target datalayout = "e-m:e-p270:32:32-p271:32:32-p272:64:64-i64:64-i128:128-f80:128-n8:16:32:64-S128"
target triple = "x86_64-unknown-linux-gnu"

%"class.Assimp::MDLImporter" = type <{ %"class.Assimp::BaseImporter", i32, [4 x i8], %"class.std::__cxx11::basic_string", ptr, i32, [4 x i8], ptr, ptr, i32, %"struct.Assimp::MDL::HalfLife::HL1ImportSettings", [2 x i8] }>
%"class.Assimp::BaseImporter" = type { ptr, double, double, %"class.std::__cxx11::basic_string", %"class.std::__exception_ptr::exception_ptr", ptr }
%"class.std::__exception_ptr::exception_ptr" = type { ptr }
%"class.std::__cxx11::basic_string" = type { %"struct.std::__cxx11::basic_string<char>::_Alloc_hider", i64, %union.anon }
%"struct.std::__cxx11::basic_string<char>::_Alloc_hider" = type { ptr }
%union.anon = type { i64, [8 x i8] }
%"struct.Assimp::MDL::HalfLife::HL1ImportSettings" = type { i8, i8, i8, i8, i8, i8, i8, i8, i8, i8 }
%"struct.Assimp::MDL::Header" = type { i32, i32, [3 x float], [3 x float], float, [3 x float], i32, i32, i32, i32, i32, i32, i32, i32, float }
%class.aiVector3t = type { float, float, float }
%"struct.Assimp::MDL::TexCoord_MDL3" = type { i16, i16 }

@.str.63 = private unnamed_addr constant [37 x i8] c"Index overflow in MDLn UV coord list\00", align 1

; Function Attrs: mustprogress uwtable
define hidden void @_ZN6Assimp11MDLImporter30ImportUVCoordinate_3DGS_MDL345ER10aiVector3tIfEPKNS_3MDL13TexCoord_MDL3Ej(ptr noundef nonnull align 8 dereferenceable(158) %this, ptr noundef nonnull align 4 dereferenceable(12) %vOut, ptr noundef %pcSrc, i32 noundef %iIndex) #2 align 2 {
entry:
  %this.addr = alloca ptr, align 8
  %vOut.addr = alloca ptr, align 8
  %pcSrc.addr = alloca ptr, align 8
  %iIndex.addr = alloca i32, align 4
  %pcHeader = alloca ptr, align 8
  %s = alloca float, align 4
  %t = alloca float, align 4
  store ptr %this, ptr %this.addr, align 8
  store ptr %vOut, ptr %vOut.addr, align 8
  store ptr %pcSrc, ptr %pcSrc.addr, align 8
  store i32 %iIndex, ptr %iIndex.addr, align 4
  %this1 = load ptr, ptr %this.addr, align 8
  %mBuffer = getelementptr inbounds %"class.Assimp::MDLImporter", ptr %this1, i32 0, i32 4
  %0 = load ptr, ptr %mBuffer, align 8
  store ptr %0, ptr %pcHeader, align 8
  %1 = load i32, ptr %iIndex.addr, align 4
  %2 = load ptr, ptr %pcHeader, align 8
  %synctype = getelementptr inbounds %"struct.Assimp::MDL::Header", ptr %2, i32 0, i32 12
  %3 = load i32, ptr %synctype, align 1
  %cmp = icmp uge i32 %1, %3
  br i1 %cmp, label %if.then, label %if.end

if.then:                                          ; preds = %entry
  %4 = load ptr, ptr %pcHeader, align 8
  %synctype2 = getelementptr inbounds %"struct.Assimp::MDL::Header", ptr %4, i32 0, i32 12
  %5 = load i32, ptr %synctype2, align 1
  %sub = sub nsw i32 %5, 1
  store i32 %sub, ptr %iIndex.addr, align 4
  %call = call noundef ptr @_ZN6Assimp13DefaultLogger3getEv()
  call void @_ZN6Assimp6Logger4warnEPKc(ptr noundef nonnull align 8 dereferenceable(12) %call, ptr noundef @.str.63)
  br label %if.end

if.end:                                           ; preds = %if.then, %entry
  %6 = load ptr, ptr %pcSrc.addr, align 8
  %7 = load i32, ptr %iIndex.addr, align 4
  %idxprom = zext i32 %7 to i64
  %arrayidx = getelementptr inbounds %"struct.Assimp::MDL::TexCoord_MDL3", ptr %6, i64 %idxprom
  %u = getelementptr inbounds %"struct.Assimp::MDL::TexCoord_MDL3", ptr %arrayidx, i32 0, i32 0
  %8 = load i16, ptr %u, align 1
  %conv = sitofp i16 %8 to float
  store float %conv, ptr %s, align 4
  %9 = load ptr, ptr %pcSrc.addr, align 8
  %10 = load i32, ptr %iIndex.addr, align 4
  %idxprom3 = zext i32 %10 to i64
  %arrayidx4 = getelementptr inbounds %"struct.Assimp::MDL::TexCoord_MDL3", ptr %9, i64 %idxprom3
  %v = getelementptr inbounds %"struct.Assimp::MDL::TexCoord_MDL3", ptr %arrayidx4, i32 0, i32 1
  %11 = load i16, ptr %v, align 1
  %conv5 = sitofp i16 %11 to float
  store float %conv5, ptr %t, align 4
  %iGSFileVersion = getelementptr inbounds %"class.Assimp::MDLImporter", ptr %this1, i32 0, i32 5
  %12 = load i32, ptr %iGSFileVersion, align 8
  %cmp6 = icmp ne i32 5, %12
  br i1 %cmp6, label %if.then7, label %if.end13

if.then7:                                         ; preds = %if.end
  %13 = load float, ptr %s, align 4
  %add = fadd float %13, 5.000000e-01
  %14 = load ptr, ptr %pcHeader, align 8
  %skinwidth = getelementptr inbounds %"struct.Assimp::MDL::Header", ptr %14, i32 0, i32 7
  %15 = load i32, ptr %skinwidth, align 1
  %conv8 = sitofp i32 %15 to float
  %div = fdiv float %add, %conv8
  store float %div, ptr %s, align 4
  %16 = load float, ptr %t, align 4
  %add9 = fadd float %16, 5.000000e-01
  %17 = load ptr, ptr %pcHeader, align 8
  %skinheight = getelementptr inbounds %"struct.Assimp::MDL::Header", ptr %17, i32 0, i32 8
  %18 = load i32, ptr %skinheight, align 1
  %conv10 = sitofp i32 %18 to float
  %div11 = fdiv float %add9, %conv10
  %sub12 = fsub float 1.000000e+00, %div11
  store float %sub12, ptr %t, align 4
  br label %if.end13

if.end13:                                         ; preds = %if.then7, %if.end
  %19 = load float, ptr %s, align 4
  %20 = load ptr, ptr %vOut.addr, align 8
  %x = getelementptr inbounds %class.aiVector3t, ptr %20, i32 0, i32 0
  store float %19, ptr %x, align 4
  %21 = load float, ptr %t, align 4
  %22 = load ptr, ptr %vOut.addr, align 8
  %y = getelementptr inbounds %class.aiVector3t, ptr %22, i32 0, i32 1
  store float %21, ptr %y, align 4
  %23 = load ptr, ptr %vOut.addr, align 8
  %z = getelementptr inbounds %class.aiVector3t, ptr %23, i32 0, i32 2
  store float 0.000000e+00, ptr %z, align 4
  ret void
}