; Function Attrs: mustprogress uwtable
define hidden void @_ZN6Assimp11MDLImporter30ImportUVCoordinate_3DGS_MDL345ER10aiVector3tIfEPKNS_3MDL13TexCoord_MDL3Ej(ptr nocapture noundef nonnull readonly align 8 dereferenceable(158) %this, ptr nocapture noundef nonnull writeonly align 4 dereferenceable(12) %vOut, ptr nocapture noundef readonly %pcSrc, i32 noundef %iIndex) local_unnamed_addr #2 align 2 {
entry:
  %mBuffer = getelementptr inbounds i8, ptr %this, i64 112
  %0 = load ptr, ptr %mBuffer, align 8
  %synctype = getelementptr inbounds i8, ptr %0, i64 72
  %1 = load i32, ptr %synctype, align 1
  %cmp.not = icmp ugt i32 %1, %iIndex
  br i1 %cmp.not, label %if.end, label %if.then

if.then:                                          ; preds = %entry
  %sub = add nsw i32 %1, -1
  %call = tail call noundef ptr @_ZN6Assimp13DefaultLogger3getEv()
  tail call void @_ZN6Assimp6Logger4warnEPKc(ptr noundef nonnull align 8 dereferenceable(12) %call, ptr noundef nonnull @.str.63)
  br label %if.end

if.end:                                           ; preds = %if.then, %entry
  %iIndex.addr.0 = phi i32 [ %sub, %if.then ], [ %iIndex, %entry ]
  %idxprom = zext i32 %iIndex.addr.0 to i64
  %arrayidx = getelementptr inbounds %"struct.Assimp::MDL::TexCoord_MDL3", ptr %pcSrc, i64 %idxprom
  %2 = load i16, ptr %arrayidx, align 1
  %conv = sitofp i16 %2 to float
  %v = getelementptr inbounds i8, ptr %arrayidx, i64 2
  %3 = load i16, ptr %v, align 1
  %conv5 = sitofp i16 %3 to float
  %iGSFileVersion = getelementptr inbounds i8, ptr %this, i64 120
  %4 = load i32, ptr %iGSFileVersion, align 8
  %cmp6.not = icmp eq i32 %4, 5
  br i1 %cmp6.not, label %if.end13, label %if.then7

if.then7:                                         ; preds = %if.end
  %add = fadd float %conv, 5.000000e-01
  %skinwidth = getelementptr inbounds i8, ptr %0, i64 52
  %5 = load i32, ptr %skinwidth, align 1
  %conv8 = sitofp i32 %5 to float
  %div = fdiv float %add, %conv8
  %add9 = fadd float %conv5, 5.000000e-01
  %skinheight = getelementptr inbounds i8, ptr %0, i64 56
  %6 = load i32, ptr %skinheight, align 1
  %conv10 = sitofp i32 %6 to float
  %div11 = fdiv float %add9, %conv10
  %sub12 = fsub float 1.000000e+00, %div11
  br label %if.end13

if.end13:                                         ; preds = %if.then7, %if.end
  %s.0 = phi float [ %div, %if.then7 ], [ %conv, %if.end ]
  %t.0 = phi float [ %sub12, %if.then7 ], [ %conv5, %if.end ]
  store float %s.0, ptr %vOut, align 4
  %y = getelementptr inbounds i8, ptr %vOut, i64 4
  store float %t.0, ptr %y, align 4
  %z = getelementptr inbounds i8, ptr %vOut, i64 8
  store float 0.000000e+00, ptr %z, align 4
  ret void
}